target datalayout = "e-m:e-p270:32:32-p271:32:32-p272:64:64-i64:64-i128:128-f80:128-n8:16:32:64-S128"
target triple = "x86_64-pc-linux-gnu"

%struct.pmix_list_t = type { %struct.pmix_object_t, %struct.pmix_list_item_t, i64 }
%struct.pmix_object_t = type { %union.pthread_mutex_t, ptr, i32, %struct.pmix_tma }
%union.pthread_mutex_t = type { %struct.__pthread_mutex_s }
%struct.__pthread_mutex_s = type { i32, i32, i32, i32, i32, i16, i16, %struct.__pthread_internal_list }
%struct.__pthread_internal_list = type { ptr, ptr }
%struct.pmix_tma = type { ptr, ptr, ptr, ptr, ptr, ptr, ptr, ptr }
%struct.pmix_list_item_t = type { %struct.pmix_object_t, ptr, ptr, i32 }
%struct.pmix_cli_result_t = type { %struct.pmix_object_t, %struct.pmix_list_t, ptr }
%struct.pmix_cli_item_t = type { %struct.pmix_list_item_t, ptr, ptr }

@prte_tool_actual = external global ptr, align 8
@.str.1 = private unnamed_addr constant [5 x i8] c"prte\00", align 1
@srunshorts = internal global ptr @.str.20, align 8
@.str.2 = private unnamed_addr constant [21 x i8] c"help-schizo-srun.txt\00", align 1
@.str.3 = private unnamed_addr constant [50 x i8] c"Report bugs to: https://github.com/openpmix/prrte\00", align 1
@pmix_tool_msg = external global ptr, align 8
@.str.4 = private unnamed_addr constant [6 x i8] c"PRRTE\00", align 1
@pmix_tool_org = external global ptr, align 8
@.str.5 = private unnamed_addr constant [4 x i8] c"all\00", align 1
@.str.6 = private unnamed_addr constant [8 x i8] c"ompi-a1\00", align 1
@pmix_tool_version = external global ptr, align 8
@.str.7 = private unnamed_addr constant [8 x i8] c"prtemca\00", align 1
@.str.8 = private unnamed_addr constant [10 x i8] c"PRTE_MCA_\00", align 1
@.str.9 = private unnamed_addr constant [8 x i8] c"pmixmca\00", align 1
@.str.10 = private unnamed_addr constant [10 x i8] c"PMIX_MCA_\00", align 1
@.str.16 = private unnamed_addr constant [7 x i8] c"ntasks\00", align 1
@.str.17 = private unnamed_addr constant [13 x i8] c"distribution\00", align 1
@.str.18 = private unnamed_addr constant [9 x i8] c"cpu_bind\00", align 1
@.str.21 = private unnamed_addr constant [3 x i8] c"np\00", align 1
@.str.22 = private unnamed_addr constant [7 x i8] c"map-by\00", align 1
@.str.23 = private unnamed_addr constant [8 x i8] c"bind-to\00", align 1

; Function Attrs: nounwind uwtable
define internal i32 @convert_results(ptr noundef %0) #0 {
  %2 = alloca ptr, align 8
  %3 = alloca ptr, align 8
  store ptr %0, ptr %2, align 8, !tbaa !8
  call void @llvm.lifetime.start.p0(i64 8, ptr %3) #6
  %4 = load ptr, ptr %2, align 8, !tbaa !8
  %5 = getelementptr inbounds nuw %struct.pmix_cli_result_t, ptr %4, i32 0, i32 1
  %6 = getelementptr inbounds nuw %struct.pmix_list_t, ptr %5, i32 0, i32 1
  %7 = getelementptr inbounds nuw %struct.pmix_list_item_t, ptr %6, i32 0, i32 1
  %8 = load ptr, ptr %7, align 8, !tbaa !17
  store ptr %8, ptr %3, align 8, !tbaa !8
  br label %9

9:                                                ; preds = %57, %1
  %10 = load ptr, ptr %3, align 8, !tbaa !8
  %11 = load ptr, ptr %2, align 8, !tbaa !8
  %12 = getelementptr inbounds nuw %struct.pmix_cli_result_t, ptr %11, i32 0, i32 1
  %13 = getelementptr inbounds nuw %struct.pmix_list_t, ptr %12, i32 0, i32 1
  %14 = icmp ne ptr %10, %13
  br i1 %14, label %15, label %61

15:                                               ; preds = %9
  %16 = load ptr, ptr %3, align 8, !tbaa !8
  %17 = getelementptr inbounds nuw %struct.pmix_cli_item_t, ptr %16, i32 0, i32 1
  %18 = load ptr, ptr %17, align 8, !tbaa !26
  %19 = call i32 @strcmp(ptr noundef %18, ptr noundef @.str.16) #7
  %20 = icmp eq i32 0, %19
  br i1 %20, label %21, label %28

21:                                               ; preds = %15
  %22 = load ptr, ptr %3, align 8, !tbaa !8
  %23 = getelementptr inbounds nuw %struct.pmix_cli_item_t, ptr %22, i32 0, i32 1
  %24 = load ptr, ptr %23, align 8, !tbaa !26
  call void @free(ptr noundef %24) #6
  %25 = call noalias ptr @strdup(ptr noundef @.str.21) #6
  %26 = load ptr, ptr %3, align 8, !tbaa !8
  %27 = getelementptr inbounds nuw %struct.pmix_cli_item_t, ptr %26, i32 0, i32 1
  store ptr %25, ptr %27, align 8, !tbaa !26
  br label %56

28:                                               ; preds = %15
  %29 = load ptr, ptr %3, align 8, !tbaa !8
  %30 = getelementptr inbounds nuw %struct.pmix_cli_item_t, ptr %29, i32 0, i32 1
  %31 = load ptr, ptr %30, align 8, !tbaa !26
  %32 = call i32 @strcmp(ptr noundef %31, ptr noundef @.str.17) #7
  %33 = icmp eq i32 0, %32
  br i1 %33, label %34, label %41

34:                                               ; preds = %28
  %35 = load ptr, ptr %3, align 8, !tbaa !8
  %36 = getelementptr inbounds nuw %struct.pmix_cli_item_t, ptr %35, i32 0, i32 1
  %37 = load ptr, ptr %36, align 8, !tbaa !26
  call void @free(ptr noundef %37) #6
  %38 = call noalias ptr @strdup(ptr noundef @.str.22) #6
  %39 = load ptr, ptr %3, align 8, !tbaa !8
  %40 = getelementptr inbounds nuw %struct.pmix_cli_item_t, ptr %39, i32 0, i32 1
  store ptr %38, ptr %40, align 8, !tbaa !26
  br label %55

41:                                               ; preds = %28
  %42 = load ptr, ptr %3, align 8, !tbaa !8
  %43 = getelementptr inbounds nuw %struct.pmix_cli_item_t, ptr %42, i32 0, i32 1
  %44 = load ptr, ptr %43, align 8, !tbaa !26
  %45 = call i32 @strcmp(ptr noundef %44, ptr noundef @.str.18) #7
  %46 = icmp eq i32 0, %45
  br i1 %46, label %47, label %54

47:                                               ; preds = %41
  %48 = load ptr, ptr %3, align 8, !tbaa !8
  %49 = getelementptr inbounds nuw %struct.pmix_cli_item_t, ptr %48, i32 0, i32 1
  %50 = load ptr, ptr %49, align 8, !tbaa !26
  call void @free(ptr noundef %50) #6
  %51 = call noalias ptr @strdup(ptr noundef @.str.23) #6
  %52 = load ptr, ptr %3, align 8, !tbaa !8
  %53 = getelementptr inbounds nuw %struct.pmix_cli_item_t, ptr %52, i32 0, i32 1
  store ptr %51, ptr %53, align 8, !tbaa !26
  br label %54

54:                                               ; preds = %47, %41
  br label %55

55:                                               ; preds = %54, %34
  br label %56

56:                                               ; preds = %55, %21
  br label %57

57:                                               ; preds = %56
  %58 = load ptr, ptr %3, align 8, !tbaa !8
  %59 = getelementptr inbounds nuw %struct.pmix_list_item_t, ptr %58, i32 0, i32 1
  %60 = load ptr, ptr %59, align 8, !tbaa !32
  store ptr %60, ptr %3, align 8, !tbaa !8
  br label %9, !llvm.loop !44

61:                                               ; preds = %9
  call void @llvm.lifetime.end.p0(i64 8, ptr %3) #6
  ret i32 0
}

; Function Attrs: nounwind uwtable
define internal i32 @parse_cli(ptr noundef %0, ptr noundef %1, i1 noundef zeroext %2) #0 {
  %4 = alloca i32, align 4
  %5 = alloca ptr, align 8
  %6 = alloca ptr, align 8
  %7 = alloca i8, align 1
  %8 = alloca ptr, align 8
  %9 = alloca ptr, align 8
  %10 = alloca ptr, align 8
  %11 = alloca i32, align 4
  %12 = alloca i32, align 4
  %13 = alloca ptr, align 8
  %14 = alloca i32, align 4
  store ptr %0, ptr %5, align 8, !tbaa !3
  store ptr %1, ptr %6, align 8, !tbaa !8
  %15 = zext i1 %2 to i8
  store i8 %15, ptr %7, align 1, !tbaa !9
  call void @llvm.lifetime.start.p0(i64 8, ptr %8) #6
  call void @llvm.lifetime.start.p0(i64 8, ptr %9) #6
  call void @llvm.lifetime.start.p0(i64 8, ptr %10) #6
  call void @llvm.lifetime.start.p0(i64 4, ptr %11) #6
  call void @llvm.lifetime.start.p0(i64 4, ptr %12) #6
  call void @llvm.lifetime.start.p0(i64 8, ptr %13) #6
  %16 = load ptr, ptr @prte_tool_actual, align 8, !tbaa !11
  %17 = call i32 @strcmp(ptr noundef %16, ptr noundef @.str.1) #7
  %18 = icmp eq i32 0, %17
  br i1 %18, label %19, label %21

19:                                               ; preds = %3
  store ptr @srunoptions, ptr %10, align 8, !tbaa !13
  %20 = load ptr, ptr @srunshorts, align 8, !tbaa !11
  store ptr %20, ptr %8, align 8, !tbaa !11
  store ptr @.str.2, ptr %9, align 8, !tbaa !11
  br label %22

21:                                               ; preds = %3
  store i32 -8, ptr %4, align 4
  store i32 1, ptr %14, align 4
  br label %122

22:                                               ; preds = %19
  store ptr @.str.3, ptr @pmix_tool_msg, align 8, !tbaa !11
  store ptr @.str.4, ptr @pmix_tool_org, align 8, !tbaa !11
  %23 = call ptr @prte_util_make_version_string(ptr noundef @.str.5, i32 noundef 4, i32 noundef 0, i32 noundef 0, ptr noundef @.str.6, ptr noundef null)
  store ptr %23, ptr @pmix_tool_version, align 8, !tbaa !11
  %24 = load ptr, ptr %5, align 8, !tbaa !3
  %25 = load ptr, ptr %8, align 8, !tbaa !11
  %26 = load ptr, ptr %10, align 8, !tbaa !13
  %27 = load ptr, ptr %6, align 8, !tbaa !8
  %28 = load ptr, ptr %9, align 8, !tbaa !11
  %29 = call i32 @pmix_cmd_line_parse(ptr noundef %24, ptr noundef %25, ptr noundef %26, ptr noundef null, ptr noundef %27, ptr noundef %28)
  store i32 %29, ptr %11, align 4, !tbaa !15
  %30 = load i32, ptr %11, align 4, !tbaa !15
  %31 = icmp ne i32 0, %30
  br i1 %31, label %32, label %40

32:                                               ; preds = %22
  %33 = load i32, ptr %11, align 4, !tbaa !15
  %34 = icmp eq i32 -157, %33
  br i1 %34, label %35, label %36

35:                                               ; preds = %32
  store i32 -72, ptr %4, align 4
  store i32 1, ptr %14, align 4
  br label %122

36:                                               ; preds = %32
  %37 = load i32, ptr %11, align 4, !tbaa !15
  %38 = call i32 @prte_pmix_convert_status(i32 noundef %37)
  store i32 %38, ptr %11, align 4, !tbaa !15
  %39 = load i32, ptr %11, align 4, !tbaa !15
  store i32 %39, ptr %4, align 4
  store i32 1, ptr %14, align 4
  br label %122

40:                                               ; preds = %22
  %41 = load ptr, ptr %6, align 8, !tbaa !8
  %42 = call i32 @convert_results(ptr noundef %41)
  store i32 %42, ptr %11, align 4, !tbaa !15
  %43 = load i32, ptr %11, align 4, !tbaa !15
  %44 = icmp ne i32 0, %43
  br i1 %44, label %45, label %47

45:                                               ; preds = %40
  %46 = load i32, ptr %11, align 4, !tbaa !15
  store i32 %46, ptr %4, align 4
  store i32 1, ptr %14, align 4
  br label %122

47:                                               ; preds = %40
  %48 = load ptr, ptr %6, align 8, !tbaa !8
  %49 = getelementptr inbounds nuw %struct.pmix_cli_result_t, ptr %48, i32 0, i32 1
  %50 = getelementptr inbounds nuw %struct.pmix_list_t, ptr %49, i32 0, i32 1
  %51 = getelementptr inbounds nuw %struct.pmix_list_item_t, ptr %50, i32 0, i32 1
  %52 = load ptr, ptr %51, align 8, !tbaa !17
  store ptr %52, ptr %13, align 8, !tbaa !8
  br label %53

53:                                               ; preds = %117, %47
  %54 = load ptr, ptr %13, align 8, !tbaa !8
  %55 = load ptr, ptr %6, align 8, !tbaa !8
  %56 = getelementptr inbounds nuw %struct.pmix_cli_result_t, ptr %55, i32 0, i32 1
  %57 = getelementptr inbounds nuw %struct.pmix_list_t, ptr %56, i32 0, i32 1
  %58 = icmp ne ptr %54, %57
  br i1 %58, label %59, label %121

59:                                               ; preds = %53
  %60 = load ptr, ptr %13, align 8, !tbaa !8
  %61 = getelementptr inbounds nuw %struct.pmix_cli_item_t, ptr %60, i32 0, i32 1
  %62 = load ptr, ptr %61, align 8, !tbaa !26
  %63 = call i32 @strcmp(ptr noundef %62, ptr noundef @.str.7) #7
  %64 = icmp eq i32 0, %63
  br i1 %64, label %65, label %87

65:                                               ; preds = %59
  store i32 0, ptr %12, align 4, !tbaa !15
  br label %66

66:                                               ; preds = %83, %65
  %67 = load ptr, ptr %13, align 8, !tbaa !8
  %68 = getelementptr inbounds nuw %struct.pmix_cli_item_t, ptr %67, i32 0, i32 2
  %69 = load ptr, ptr %68, align 8, !tbaa !28
  %70 = load i32, ptr %12, align 4, !tbaa !15
  %71 = sext i32 %70 to i64
  %72 = getelementptr inbounds ptr, ptr %69, i64 %71
  %73 = load ptr, ptr %72, align 8, !tbaa !11
  %74 = icmp ne ptr null, %73
  br i1 %74, label %75, label %86

75:                                               ; preds = %66
  %76 = load ptr, ptr %13, align 8, !tbaa !8
  %77 = getelementptr inbounds nuw %struct.pmix_cli_item_t, ptr %76, i32 0, i32 2
  %78 = load ptr, ptr %77, align 8, !tbaa !28
  %79 = load i32, ptr %12, align 4, !tbaa !15
  %80 = sext i32 %79 to i64
  %81 = getelementptr inbounds ptr, ptr %78, i64 %80
  %82 = load ptr, ptr %81, align 8, !tbaa !11
  call void @prte_schizo_base_expose(ptr noundef %82, ptr noundef @.str.8)
  br label %83

83:                                               ; preds = %75
  %84 = load i32, ptr %12, align 4, !tbaa !15
  %85 = add nsw i32 %84, 1
  store i32 %85, ptr %12, align 4, !tbaa !15
  br label %66, !llvm.loop !29

86:                                               ; preds = %66
  br label %116

87:                                               ; preds = %59
  %88 = load ptr, ptr %13, align 8, !tbaa !8
  %89 = getelementptr inbounds nuw %struct.pmix_cli_item_t, ptr %88, i32 0, i32 1
  %90 = load ptr, ptr %89, align 8, !tbaa !26
  %91 = call i32 @strcmp(ptr noundef %90, ptr noundef @.str.9) #7
  %92 = icmp eq i32 0, %91
  br i1 %92, label %93, label %115

93:                                               ; preds = %87
  store i32 0, ptr %12, align 4, !tbaa !15
  br label %94

94:                                               ; preds = %111, %93
  %95 = load ptr, ptr %13, align 8, !tbaa !8
  %96 = getelementptr inbounds nuw %struct.pmix_cli_item_t, ptr %95, i32 0, i32 2
  %97 = load ptr, ptr %96, align 8, !tbaa !28
  %98 = load i32, ptr %12, align 4, !tbaa !15
  %99 = sext i32 %98 to i64
  %100 = getelementptr inbounds ptr, ptr %97, i64 %99
  %101 = load ptr, ptr %100, align 8, !tbaa !11
  %102 = icmp ne ptr null, %101
  br i1 %102, label %103, label %114

103:                                              ; preds = %94
  %104 = load ptr, ptr %13, align 8, !tbaa !8
  %105 = getelementptr inbounds nuw %struct.pmix_cli_item_t, ptr %104, i32 0, i32 2
  %106 = load ptr, ptr %105, align 8, !tbaa !28
  %107 = load i32, ptr %12, align 4, !tbaa !15
  %108 = sext i32 %107 to i64
  %109 = getelementptr inbounds ptr, ptr %106, i64 %108
  %110 = load ptr, ptr %109, align 8, !tbaa !11
  call void @prte_schizo_base_expose(ptr noundef %110, ptr noundef @.str.10)
  br label %111

111:                                              ; preds = %103
  %112 = load i32, ptr %12, align 4, !tbaa !15
  %113 = add nsw i32 %112, 1
  store i32 %113, ptr %12, align 4, !tbaa !15
  br label %94, !llvm.loop !31

114:                                              ; preds = %94
  br label %115

115:                                              ; preds = %114, %87
  br label %116

116:                                              ; preds = %115, %86
  br label %117

117:                                              ; preds = %116
  %118 = load ptr, ptr %13, align 8, !tbaa !8
  %119 = getelementptr inbounds nuw %struct.pmix_list_item_t, ptr %118, i32 0, i32 1
  %120 = load ptr, ptr %119, align 8, !tbaa !32
  store ptr %120, ptr %13, align 8, !tbaa !8
  br label %53, !llvm.loop !33

121:                                              ; preds = %53
  store i32 0, ptr %4, align 4
  store i32 1, ptr %14, align 4
  br label %122

122:                                              ; preds = %121, %45, %36, %35, %21
  call void @llvm.lifetime.end.p0(i64 8, ptr %13) #6
  call void @llvm.lifetime.end.p0(i64 4, ptr %12) #6
  call void @llvm.lifetime.end.p0(i64 4, ptr %11) #6
  call void @llvm.lifetime.end.p0(i64 8, ptr %10) #6
  call void @llvm.lifetime.end.p0(i64 8, ptr %9) #6
  call void @llvm.lifetime.end.p0(i64 8, ptr %8) #6
  %123 = load i32, ptr %4, align 4
  ret i32 %123
}