; Function Attrs: nounwind uwtable
define internal i32 @parse_cli(ptr noundef %0, ptr noundef %1, i1 zeroext %2) #0 {
  %4 = load ptr, ptr @prte_tool_actual, align 8, !tbaa !3
  %5 = tail call i32 @strcmp(ptr noundef nonnull dereferenceable(1) %4, ptr noundef nonnull dereferenceable(5) @.str.1) #7
  %6 = icmp eq i32 %5, 0
  br i1 %6, label %7, label %.loopexit39

7:                                                ; preds = %3
  store ptr @.str.3, ptr @pmix_tool_msg, align 8, !tbaa !3
  store ptr @.str.4, ptr @pmix_tool_org, align 8, !tbaa !3
  %8 = tail call ptr @prte_util_make_version_string(ptr noundef nonnull @.str.5, i32 noundef 4, i32 noundef 0, i32 noundef 0, ptr noundef nonnull @.str.6, ptr noundef null) #8
  store ptr %8, ptr @pmix_tool_version, align 8, !tbaa !3
  %9 = tail call i32 @pmix_cmd_line_parse(ptr noundef %0, ptr noundef nonnull @.str.20, ptr noundef nonnull @srunoptions, ptr noundef null, ptr noundef %1, ptr noundef nonnull @.str.2) #8
  switch i32 %9, label %10 [
    i32 0, label %12
    i32 -157, label %.loopexit39
  ]

10:                                               ; preds = %7
  %11 = tail call i32 @prte_pmix_convert_status(i32 noundef %9) #8
  br label %.loopexit39

12:                                               ; preds = %7
  %13 = getelementptr inbounds nuw i8, ptr %1, i64 240
  %14 = getelementptr inbounds nuw i8, ptr %1, i64 360
  %.013.i = load ptr, ptr %14, align 8, !tbaa !8
  %.not14.i = icmp eq ptr %.013.i, %13
  br i1 %.not14.i, label %convert_results.exit, label %.lr.ph.i

.lr.ph.i:                                         ; preds = %12, %26
  %.015.i = phi ptr [ %.0.i, %26 ], [ %.013.i, %12 ]
  %15 = getelementptr inbounds nuw i8, ptr %.015.i, i64 144
  %16 = load ptr, ptr %15, align 8, !tbaa !15
  %17 = tail call i32 @strcmp(ptr noundef nonnull dereferenceable(1) %16, ptr noundef nonnull dereferenceable(7) @.str.16) #7
  %18 = icmp eq i32 %17, 0
  br i1 %18, label %.sink.split.i, label %19

19:                                               ; preds = %.lr.ph.i
  %20 = tail call i32 @strcmp(ptr noundef nonnull dereferenceable(1) %16, ptr noundef nonnull dereferenceable(13) @.str.17) #7
  %21 = icmp eq i32 %20, 0
  br i1 %21, label %.sink.split.i, label %22

22:                                               ; preds = %19
  %23 = tail call i32 @strcmp(ptr noundef nonnull dereferenceable(1) %16, ptr noundef nonnull dereferenceable(9) @.str.18) #7
  %24 = icmp eq i32 %23, 0
  br i1 %24, label %.sink.split.i, label %26

.sink.split.i:                                    ; preds = %22, %19, %.lr.ph.i
  %.str.21.sink.i = phi ptr [ @.str.21, %.lr.ph.i ], [ @.str.22, %19 ], [ @.str.23, %22 ]
  tail call void @free(ptr noundef nonnull %16) #8
  %25 = tail call noalias dereferenceable_or_null(3) ptr @strdup(ptr noundef nonnull %.str.21.sink.i) #8
  store ptr %25, ptr %15, align 8, !tbaa !15
  br label %26

26:                                               ; preds = %.sink.split.i, %22
  %27 = getelementptr inbounds nuw i8, ptr %.015.i, i64 120
  %.0.i = load ptr, ptr %27, align 8, !tbaa !8
  %.not.i = icmp eq ptr %.0.i, %13
  br i1 %.not.i, label %convert_results.exit.loopexit, label %.lr.ph.i, !llvm.loop !18

convert_results.exit.loopexit:                    ; preds = %26
  %.045.pre = load ptr, ptr %14, align 8, !tbaa !8
  br label %convert_results.exit

convert_results.exit:                             ; preds = %convert_results.exit.loopexit, %12
  %.045 = phi ptr [ %.045.pre, %convert_results.exit.loopexit ], [ %.013.i, %12 ]
  %.not3446 = icmp eq ptr %.045, %13
  br i1 %.not3446, label %.loopexit39, label %.lr.ph48

.lr.ph48:                                         ; preds = %convert_results.exit, %.loopexit
  %.047 = phi ptr [ %.0, %.loopexit ], [ %.045, %convert_results.exit ]
  %28 = getelementptr inbounds nuw i8, ptr %.047, i64 144
  %29 = load ptr, ptr %28, align 8, !tbaa !15
  %30 = tail call i32 @strcmp(ptr noundef nonnull dereferenceable(1) %29, ptr noundef nonnull dereferenceable(8) @.str.7) #7
  %31 = icmp eq i32 %30, 0
  br i1 %31, label %.preheader, label %39

.preheader:                                       ; preds = %.lr.ph48
  %32 = getelementptr inbounds nuw i8, ptr %.047, i64 152
  %33 = load ptr, ptr %32, align 8, !tbaa !20
  %34 = load ptr, ptr %33, align 8, !tbaa !3
  %.not3642 = icmp eq ptr %34, null
  br i1 %.not3642, label %.loopexit, label %.lr.ph44

.lr.ph44:                                         ; preds = %.preheader, %.lr.ph44
  %indvars.iv51 = phi i64 [ %indvars.iv.next52, %.lr.ph44 ], [ 0, %.preheader ]
  %35 = phi ptr [ %38, %.lr.ph44 ], [ %34, %.preheader ]
  tail call void @prte_schizo_base_expose(ptr noundef nonnull %35, ptr noundef nonnull @.str.8) #8
  %indvars.iv.next52 = add nuw nsw i64 %indvars.iv51, 1
  %36 = load ptr, ptr %32, align 8, !tbaa !20
  %37 = getelementptr inbounds nuw ptr, ptr %36, i64 %indvars.iv.next52
  %38 = load ptr, ptr %37, align 8, !tbaa !3
  %.not36 = icmp eq ptr %38, null
  br i1 %.not36, label %.loopexit, label %.lr.ph44, !llvm.loop !21

39:                                               ; preds = %.lr.ph48
  %40 = tail call i32 @strcmp(ptr noundef nonnull dereferenceable(1) %29, ptr noundef nonnull dereferenceable(8) @.str.9) #7
  %41 = icmp eq i32 %40, 0
  br i1 %41, label %.preheader37, label %.loopexit

.preheader37:                                     ; preds = %39
  %42 = getelementptr inbounds nuw i8, ptr %.047, i64 152
  %43 = load ptr, ptr %42, align 8, !tbaa !20
  %44 = load ptr, ptr %43, align 8, !tbaa !3
  %.not3540 = icmp eq ptr %44, null
  br i1 %.not3540, label %.loopexit, label %.lr.ph

.lr.ph:                                           ; preds = %.preheader37, %.lr.ph
  %indvars.iv = phi i64 [ %indvars.iv.next, %.lr.ph ], [ 0, %.preheader37 ]
  %45 = phi ptr [ %48, %.lr.ph ], [ %44, %.preheader37 ]
  tail call void @prte_schizo_base_expose(ptr noundef nonnull %45, ptr noundef nonnull @.str.10) #8
  %indvars.iv.next = add nuw nsw i64 %indvars.iv, 1
  %46 = load ptr, ptr %42, align 8, !tbaa !20
  %47 = getelementptr inbounds nuw ptr, ptr %46, i64 %indvars.iv.next
  %48 = load ptr, ptr %47, align 8, !tbaa !3
  %.not35 = icmp eq ptr %48, null
  br i1 %.not35, label %.loopexit, label %.lr.ph, !llvm.loop !22

.loopexit:                                        ; preds = %.lr.ph, %.lr.ph44, %.preheader37, %.preheader, %39
  %49 = getelementptr inbounds nuw i8, ptr %.047, i64 120
  %.0 = load ptr, ptr %49, align 8, !tbaa !8
  %.not34 = icmp eq ptr %.0, %13
  br i1 %.not34, label %.loopexit39, label %.lr.ph48, !llvm.loop !23

.loopexit39:                                      ; preds = %.loopexit, %convert_results.exit, %7, %3, %10
  %.029 = phi i32 [ %11, %10 ], [ -8, %3 ], [ -72, %7 ], [ 0, %convert_results.exit ], [ 0, %.loopexit ]
  ret i32 %.029
}